target datalayout = "e-m:e-p270:32:32-p271:32:32-p272:64:64-i64:64-i128:128-f80:128-n8:16:32:64-S128"
target triple = "x86_64-unknown-linux-gnu"

%"class.sat::literal" = type { i32 }
%"class.arith::sls" = type <{ %"class.sat::local_search_plugin", ptr, ptr, ptr, %"struct.arith::sls::stats", [4 x i8], %"struct.arith::sls::config", %class.scoped_ptr_vector, %class.vector.0, %class.svector, i8, [7 x i8] }>
%"class.sat::local_search_plugin" = type { ptr }
%"struct.arith::sls::stats" = type { i32 }
%"struct.arith::sls::config" = type { double, i32, i32, i32, double }
%class.scoped_ptr_vector = type { %class.ptr_vector }
%class.ptr_vector = type { %class.vector }
%class.vector = type { ptr }
%class.vector.0 = type { ptr }
%class.svector = type { %class.vector.1 }
%class.vector.1 = type { ptr }
%"struct.arith::sls::ineq" = type <{ %class.vector.112, i32, [4 x i8], i64, i64, i32, [4 x i8] }>
%class.vector.112 = type { ptr }
%"struct.std::pair.251" = type <{ i64, i32, [4 x i8] }>

; Function Attrs: mustprogress nounwind uwtable
define linkonce_odr hidden noundef nonnull align 8 dereferenceable(8) ptr @_ZNK6vectorIPN5arith3sls4ineqELb0EjEixEj(ptr noundef nonnull align 8 dereferenceable(8) %this, i32 noundef %idx) #4 comdat align 2 {
entry:
  %this.addr = alloca ptr, align 8
  %idx.addr = alloca i32, align 4
  store ptr %this, ptr %this.addr, align 8
  store i32 %idx, ptr %idx.addr, align 4
  %this1 = load ptr, ptr %this.addr, align 8
  %m_data = getelementptr inbounds %class.vector, ptr %this1, i32 0, i32 0
  %0 = load ptr, ptr %m_data, align 8
  %1 = load i32, ptr %idx.addr, align 4
  %idxprom = zext i32 %1 to i64
  %arrayidx = getelementptr inbounds ptr, ptr %0, i64 %idxprom
  ret ptr %arrayidx
}

; Function Attrs: mustprogress nounwind uwtable
define linkonce_odr hidden noundef nonnull align 4 dereferenceable(4) ptr @_ZNSt10__pair_getILm1EE11__const_getIljEERKT0_RKSt4pairIT_S2_E(ptr noundef nonnull align 8 dereferenceable(12) %__pair) #4 comdat align 2 {
entry:
  %__pair.addr = alloca ptr, align 8
  store ptr %__pair, ptr %__pair.addr, align 8
  %0 = load ptr, ptr %__pair.addr, align 8
  %second = getelementptr inbounds %"struct.std::pair.251", ptr %0, i32 0, i32 1
  ret ptr %second
}

; Function Attrs: mustprogress nounwind uwtable
define linkonce_odr hidden noundef nonnull align 8 dereferenceable(8) ptr @_ZNSt10__pair_getILm0EE11__const_getIljEERKT_RKSt4pairIS2_T0_E(ptr noundef nonnull align 8 dereferenceable(12) %__pair) #4 comdat align 2 {
entry:
  %__pair.addr = alloca ptr, align 8
  store ptr %__pair, ptr %__pair.addr, align 8
  %0 = load ptr, ptr %__pair.addr, align 8
  %first = getelementptr inbounds %"struct.std::pair.251", ptr %0, i32 0, i32 0
  ret ptr %first
}

; Function Attrs: mustprogress nounwind uwtable
define linkonce_odr hidden noundef i32 @_ZNK6vectorISt4pairIljELb1EjE4sizeEv(ptr noundef nonnull align 8 dereferenceable(8) %this) #4 comdat align 2 {
entry:
  %retval = alloca i32, align 4
  %this.addr = alloca ptr, align 8
  store ptr %this, ptr %this.addr, align 8
  %this1 = load ptr, ptr %this.addr, align 8
  %m_data = getelementptr inbounds %class.vector.112, ptr %this1, i32 0, i32 0
  %0 = load ptr, ptr %m_data, align 8
  %cmp = icmp eq ptr %0, null
  br i1 %cmp, label %if.then, label %if.end

if.then:                                          ; preds = %entry
  store i32 0, ptr %retval, align 4
  br label %return

if.end:                                           ; preds = %entry
  %m_data2 = getelementptr inbounds %class.vector.112, ptr %this1, i32 0, i32 0
  %1 = load ptr, ptr %m_data2, align 8
  %arrayidx = getelementptr inbounds i32, ptr %1, i64 -1
  %2 = load i32, ptr %arrayidx, align 4
  store i32 %2, ptr %retval, align 4
  br label %return

return:                                           ; preds = %if.end, %if.then
  %3 = load i32, ptr %retval, align 4
  ret i32 %3
}

; Function Attrs: mustprogress uwtable
define linkonce_odr hidden noundef ptr @_ZNK17scoped_ptr_vectorIN5arith3sls4ineqEEixEj(ptr noundef nonnull align 8 dereferenceable(8) %this, i32 noundef %idx) #5 comdat align 2 {
entry:
  %this.addr = alloca ptr, align 8
  %idx.addr = alloca i32, align 4
  store ptr %this, ptr %this.addr, align 8
  store i32 %idx, ptr %idx.addr, align 4
  %this1 = load ptr, ptr %this.addr, align 8
  %m_vector = getelementptr inbounds %class.scoped_ptr_vector, ptr %this1, i32 0, i32 0
  %0 = load i32, ptr %idx.addr, align 4
  %call = call noundef nonnull align 8 dereferenceable(8) ptr @_ZNK6vectorIPN5arith3sls4ineqELb0EjEixEj(ptr noundef nonnull align 8 dereferenceable(8) %m_vector, i32 noundef %0)
  %1 = load ptr, ptr %call, align 8
  ret ptr %1
}

; Function Attrs: mustprogress nounwind uwtable
define linkonce_odr noundef nonnull align 4 dereferenceable(4) ptr @_ZSt3getILm1EljERKNSt13tuple_elementIXT_ESt4pairIT0_T1_EE4typeERKS4_(ptr noundef nonnull align 8 dereferenceable(12) %__in) #4 comdat {
entry:
  %__in.addr = alloca ptr, align 8
  store ptr %__in, ptr %__in.addr, align 8
  %0 = load ptr, ptr %__in.addr, align 8
  %call = call noundef nonnull align 4 dereferenceable(4) ptr @_ZNSt10__pair_getILm1EE11__const_getIljEERKT0_RKSt4pairIT_S2_E(ptr noundef nonnull align 8 dereferenceable(12) %0) #3
  ret ptr %call
}

; Function Attrs: mustprogress nounwind uwtable
define linkonce_odr noundef nonnull align 8 dereferenceable(8) ptr @_ZSt3getILm0EljERKNSt13tuple_elementIXT_ESt4pairIT0_T1_EE4typeERKS4_(ptr noundef nonnull align 8 dereferenceable(12) %__in) #4 comdat {
entry:
  %__in.addr = alloca ptr, align 8
  store ptr %__in, ptr %__in.addr, align 8
  %0 = load ptr, ptr %__in.addr, align 8
  %call = call noundef nonnull align 8 dereferenceable(8) ptr @_ZNSt10__pair_getILm0EE11__const_getIljEERKT_RKSt4pairIS2_T0_E(ptr noundef nonnull align 8 dereferenceable(12) %0) #3
  ret ptr %call
}

; Function Attrs: mustprogress nounwind uwtable
define linkonce_odr hidden noundef ptr @_ZN6vectorISt4pairIljELb1EjE3endEv(ptr noundef nonnull align 8 dereferenceable(8) %this) #4 comdat align 2 {
entry:
  %this.addr = alloca ptr, align 8
  store ptr %this, ptr %this.addr, align 8
  %this1 = load ptr, ptr %this.addr, align 8
  %m_data = getelementptr inbounds %class.vector.112, ptr %this1, i32 0, i32 0
  %0 = load ptr, ptr %m_data, align 8
  %call = call noundef i32 @_ZNK6vectorISt4pairIljELb1EjE4sizeEv(ptr noundef nonnull align 8 dereferenceable(8) %this1)
  %idx.ext = zext i32 %call to i64
  %add.ptr = getelementptr inbounds %"struct.std::pair.251", ptr %0, i64 %idx.ext
  ret ptr %add.ptr
}

; Function Attrs: mustprogress nounwind uwtable
define linkonce_odr hidden noundef ptr @_ZN6vectorISt4pairIljELb1EjE5beginEv(ptr noundef nonnull align 8 dereferenceable(8) %this) #4 comdat align 2 {
entry:
  %this.addr = alloca ptr, align 8
  store ptr %this, ptr %this.addr, align 8
  %this1 = load ptr, ptr %this.addr, align 8
  %m_data = getelementptr inbounds %class.vector.112, ptr %this1, i32 0, i32 0
  %0 = load ptr, ptr %m_data, align 8
  ret ptr %0
}

; Function Attrs: mustprogress uwtable
define linkonce_odr hidden noundef ptr @_ZNK5arith3sls4atomEj(ptr noundef nonnull align 8 dereferenceable(97) %this, i32 noundef %bv) #5 comdat align 2 {
entry:
  %this.addr = alloca ptr, align 8
  %bv.addr = alloca i32, align 4
  store ptr %this, ptr %this.addr, align 8
  store i32 %bv, ptr %bv.addr, align 4
  %this1 = load ptr, ptr %this.addr, align 8
  %m_bool_vars = getelementptr inbounds %"class.arith::sls", ptr %this1, i32 0, i32 7
  %0 = load i32, ptr %bv.addr, align 4
  %call = call noundef ptr @_ZNK17scoped_ptr_vectorIN5arith3sls4ineqEEixEj(ptr noundef nonnull align 8 dereferenceable(8) %m_bool_vars, i32 noundef %0)
  ret ptr %call
}

; Function Attrs: mustprogress nounwind uwtable
define linkonce_odr hidden void @_ZN3sat7literalC2Ejb(ptr noundef nonnull align 4 dereferenceable(4) %this, i32 noundef %v, i1 noundef zeroext %_sign) unnamed_addr #4 comdat align 2 {
entry:
  %this.addr = alloca ptr, align 8
  %v.addr = alloca i32, align 4
  %_sign.addr = alloca i8, align 1
  store ptr %this, ptr %this.addr, align 8
  store i32 %v, ptr %v.addr, align 4
  %frombool = zext i1 %_sign to i8
  store i8 %frombool, ptr %_sign.addr, align 1
  %this1 = load ptr, ptr %this.addr, align 8
  %m_val = getelementptr inbounds %"class.sat::literal", ptr %this1, i32 0, i32 0
  %0 = load i32, ptr %v.addr, align 4
  %shl = shl i32 %0, 1
  %1 = load i8, ptr %_sign.addr, align 1
  %tobool = trunc i8 %1 to i1
  %conv = zext i1 %tobool to i32
  %add = add i32 %shl, %conv
  store i32 %add, ptr %m_val, align 4
  ret void
}

; Function Attrs: mustprogress uwtable
define linkonce_odr hidden noundef zeroext i1 @_ZNK5arith3sls4signEj(ptr noundef nonnull align 8 dereferenceable(97) %this, i32 noundef %v) #5 comdat align 2 {
entry:
  %this.addr = alloca ptr, align 8
  %v.addr = alloca i32, align 4
  store ptr %this, ptr %this.addr, align 8
  store i32 %v, ptr %v.addr, align 4
  %this1 = load ptr, ptr %this.addr, align 8
  %m_bool_search = getelementptr inbounds %"class.arith::sls", ptr %this1, i32 0, i32 3
  %0 = load ptr, ptr %m_bool_search, align 8
  %1 = load i32, ptr %v.addr, align 4
  %vtable = load ptr, ptr %0, align 8
  %vfn = getelementptr inbounds ptr, ptr %vtable, i64 12
  %2 = load ptr, ptr %vfn, align 8
  %call = call noundef zeroext i1 %2(ptr noundef nonnull align 8 dereferenceable(920) %0, i32 noundef %1)
  %lnot = xor i1 %call, true
  ret i1 %lnot
}

; Function Attrs: mustprogress uwtable
define hidden noundef double @_ZN5arith3sls13dscore_rewardEj(ptr noundef nonnull align 8 dereferenceable(97) %this, i32 noundef %bv) #5 align 2 {
entry:
  %retval = alloca double, align 8
  %this.addr = alloca ptr, align 8
  %bv.addr = alloca i32, align 4
  %old_sign = alloca i8, align 1
  %litv = alloca %"class.sat::literal", align 4
  %ineq = alloca ptr, align 8
  %new_value = alloca i64, align 8
  %__range1 = alloca ptr, align 8
  %__begin1 = alloca ptr, align 8
  %__end1 = alloca ptr, align 8
  %0 = alloca ptr, align 8
  %coeff = alloca ptr, align 8
  %v = alloca ptr, align 8
  %result = alloca double, align 8
  store ptr %this, ptr %this.addr, align 8
  store i32 %bv, ptr %bv.addr, align 4
  %this1 = load ptr, ptr %this.addr, align 8
  %m_dscore_mode = getelementptr inbounds %"class.arith::sls", ptr %this1, i32 0, i32 10
  store i8 0, ptr %m_dscore_mode, align 8
  %1 = load i32, ptr %bv.addr, align 4
  %call = call noundef zeroext i1 @_ZNK5arith3sls4signEj(ptr noundef nonnull align 8 dereferenceable(97) %this1, i32 noundef %1)
  %frombool = zext i1 %call to i8
  store i8 %frombool, ptr %old_sign, align 1
  %2 = load i32, ptr %bv.addr, align 4
  %3 = load i8, ptr %old_sign, align 1
  %tobool = trunc i8 %3 to i1
  call void @_ZN3sat7literalC2Ejb(ptr noundef nonnull align 4 dereferenceable(4) %litv, i32 noundef %2, i1 noundef zeroext %tobool)
  %4 = load i32, ptr %bv.addr, align 4
  %call2 = call noundef ptr @_ZNK5arith3sls4atomEj(ptr noundef nonnull align 8 dereferenceable(97) %this1, i32 noundef %4)
  store ptr %call2, ptr %ineq, align 8
  %5 = load ptr, ptr %ineq, align 8
  %tobool3 = icmp ne ptr %5, null
  br i1 %tobool3, label %if.end, label %if.then

if.then:                                          ; preds = %entry
  store double 0.000000e+00, ptr %retval, align 8
  br label %return

if.end:                                           ; preds = %entry
  %6 = load ptr, ptr %ineq, align 8
  %m_args = getelementptr inbounds %"struct.arith::sls::ineq", ptr %6, i32 0, i32 0
  store ptr %m_args, ptr %__range1, align 8
  %7 = load ptr, ptr %__range1, align 8
  %call4 = call noundef ptr @_ZN6vectorISt4pairIljELb1EjE5beginEv(ptr noundef nonnull align 8 dereferenceable(8) %7)
  store ptr %call4, ptr %__begin1, align 8
  %8 = load ptr, ptr %__range1, align 8
  %call5 = call noundef ptr @_ZN6vectorISt4pairIljELb1EjE3endEv(ptr noundef nonnull align 8 dereferenceable(8) %8)
  store ptr %call5, ptr %__end1, align 8
  br label %for.cond

for.cond:                                         ; preds = %for.inc, %if.end
  %9 = load ptr, ptr %__begin1, align 8
  %10 = load ptr, ptr %__end1, align 8
  %cmp = icmp ne ptr %9, %10
  br i1 %cmp, label %for.body, label %for.end

for.body:                                         ; preds = %for.cond
  %11 = load ptr, ptr %__begin1, align 8
  store ptr %11, ptr %0, align 8
  %12 = load ptr, ptr %0, align 8
  %call6 = call noundef nonnull align 8 dereferenceable(8) ptr @_ZSt3getILm0EljERKNSt13tuple_elementIXT_ESt4pairIT0_T1_EE4typeERKS4_(ptr noundef nonnull align 8 dereferenceable(12) %12) #3
  store ptr %call6, ptr %coeff, align 8
  %13 = load ptr, ptr %0, align 8
  %call7 = call noundef nonnull align 4 dereferenceable(4) ptr @_ZSt3getILm1EljERKNSt13tuple_elementIXT_ESt4pairIT0_T1_EE4typeERKS4_(ptr noundef nonnull align 8 dereferenceable(12) %13) #3
  store ptr %call7, ptr %v, align 8
  store double 0.000000e+00, ptr %result, align 8
  %14 = load i8, ptr %old_sign, align 1
  %tobool8 = trunc i8 %14 to i1
  %15 = load ptr, ptr %ineq, align 8
  %16 = load ptr, ptr %v, align 8
  %17 = load i32, ptr %16, align 4
  %18 = load ptr, ptr %coeff, align 8
  %19 = load i64, ptr %18, align 8
  %call9 = call noundef zeroext i1 @_ZN5arith3sls2cmEbRKNS0_4ineqEjlRl(ptr noundef nonnull align 8 dereferenceable(97) %this1, i1 noundef zeroext %tobool8, ptr noundef nonnull align 8 dereferenceable(36) %15, i32 noundef %17, i64 noundef %19, ptr noundef nonnull align 8 dereferenceable(8) %new_value)
  br i1 %call9, label %if.then10, label %if.end12

if.then10:                                        ; preds = %for.body
  %20 = load ptr, ptr %v, align 8
  %21 = load i32, ptr %20, align 4
  %22 = load i64, ptr %new_value, align 8
  %call11 = call noundef double @_ZNK5arith3sls6dscoreEjl(ptr noundef nonnull align 8 dereferenceable(97) %this1, i32 noundef %21, i64 noundef %22)
  store double %call11, ptr %result, align 8
  br label %if.end12

if.end12:                                         ; preds = %if.then10, %for.body
  %23 = load double, ptr %result, align 8
  %cmp13 = fcmp ogt double %23, 0.000000e+00
  br i1 %cmp13, label %if.then14, label %if.end15

if.then14:                                        ; preds = %if.end12
  %24 = load ptr, ptr %v, align 8
  %25 = load i32, ptr %24, align 4
  %26 = load ptr, ptr %ineq, align 8
  %m_var_to_flip = getelementptr inbounds %"struct.arith::sls::ineq", ptr %26, i32 0, i32 5
  store i32 %25, ptr %m_var_to_flip, align 8
  %27 = load double, ptr %result, align 8
  store double %27, ptr %retval, align 8
  br label %return

if.end15:                                         ; preds = %if.end12
  br label %for.inc

for.inc:                                          ; preds = %if.end15
  %28 = load ptr, ptr %__begin1, align 8
  %incdec.ptr = getelementptr inbounds %"struct.std::pair.251", ptr %28, i32 1
  store ptr %incdec.ptr, ptr %__begin1, align 8
  br label %for.cond

for.end:                                          ; preds = %for.cond
  store double 0.000000e+00, ptr %retval, align 8
  br label %return

return:                                           ; preds = %for.end, %if.then14, %if.then
  %29 = load double, ptr %retval, align 8
  ret double %29
}