; Function Attrs: mustprogress uwtable
define hidden noundef double @_ZN5arith3sls13dscore_rewardEj(ptr noundef nonnull align 8 dereferenceable(97) %this, i32 noundef %bv) local_unnamed_addr #5 align 2 {
entry:
  %new_value = alloca i64, align 8
  %m_dscore_mode = getelementptr inbounds i8, ptr %this, i64 96
  store i8 0, ptr %m_dscore_mode, align 8
  %m_bool_search.i = getelementptr inbounds i8, ptr %this, i64 24
  %0 = load ptr, ptr %m_bool_search.i, align 8
  %vtable.i = load ptr, ptr %0, align 8
  %vfn.i = getelementptr inbounds i8, ptr %vtable.i, i64 96
  %1 = load ptr, ptr %vfn.i, align 8
  %call.i = tail call noundef zeroext i1 %1(ptr noundef nonnull align 8 dereferenceable(920) %0, i32 noundef %bv)
  %lnot.i = xor i1 %call.i, true
  %m_bool_vars.i = getelementptr inbounds i8, ptr %this, i64 72
  %2 = load ptr, ptr %m_bool_vars.i, align 8
  %idxprom.i.i.i = zext i32 %bv to i64
  %arrayidx.i.i.i = getelementptr inbounds ptr, ptr %2, i64 %idxprom.i.i.i
  %3 = load ptr, ptr %arrayidx.i.i.i, align 8
  %tobool3.not = icmp eq ptr %3, null
  br i1 %tobool3.not, label %return, label %if.end

if.end:                                           ; preds = %entry
  %4 = load ptr, ptr %3, align 8
  %cmp.i.i = icmp eq ptr %4, null
  br i1 %cmp.i.i, label %return, label %_ZN6vectorISt4pairIljELb1EjE3endEv.exit

_ZN6vectorISt4pairIljELb1EjE3endEv.exit:          ; preds = %if.end
  %arrayidx.i.i = getelementptr inbounds i8, ptr %4, i64 -4
  %5 = load i32, ptr %arrayidx.i.i, align 4
  %6 = zext i32 %5 to i64
  %add.ptr.i = getelementptr inbounds %"struct.std::pair.251", ptr %4, i64 %6
  %cmp.not16 = icmp eq i32 %5, 0
  br i1 %cmp.not16, label %return, label %for.body

for.body:                                         ; preds = %_ZN6vectorISt4pairIljELb1EjE3endEv.exit, %for.inc
  %__begin1.017 = phi ptr [ %incdec.ptr, %for.inc ], [ %4, %_ZN6vectorISt4pairIljELb1EjE3endEv.exit ]
  %second.i.i = getelementptr inbounds i8, ptr %__begin1.017, i64 8
  %7 = load i32, ptr %second.i.i, align 4
  %8 = load i64, ptr %__begin1.017, align 8
  %call9 = call noundef zeroext i1 @_ZN5arith3sls2cmEbRKNS0_4ineqEjlRl(ptr noundef nonnull align 8 dereferenceable(97) %this, i1 noundef zeroext %lnot.i, ptr noundef nonnull align 8 dereferenceable(36) %3, i32 noundef %7, i64 noundef %8, ptr noundef nonnull align 8 dereferenceable(8) %new_value)
  br i1 %call9, label %if.end12, label %for.inc

if.end12:                                         ; preds = %for.body
  %9 = load i32, ptr %second.i.i, align 4
  %10 = load i64, ptr %new_value, align 8
  %call11 = call noundef double @_ZNK5arith3sls6dscoreEjl(ptr noundef nonnull align 8 dereferenceable(97) %this, i32 noundef %9, i64 noundef %10)
  %cmp13 = fcmp ogt double %call11, 0.000000e+00
  br i1 %cmp13, label %if.then14, label %for.inc

if.then14:                                        ; preds = %if.end12
  %11 = load i32, ptr %second.i.i, align 4
  %m_var_to_flip = getelementptr inbounds i8, ptr %3, i64 32
  store i32 %11, ptr %m_var_to_flip, align 8
  br label %return

for.inc:                                          ; preds = %for.body, %if.end12
  %incdec.ptr = getelementptr inbounds i8, ptr %__begin1.017, i64 16
  %cmp.not = icmp eq ptr %incdec.ptr, %add.ptr.i
  br i1 %cmp.not, label %return, label %for.body

return:                                           ; preds = %for.inc, %if.end, %_ZN6vectorISt4pairIljELb1EjE3endEv.exit, %entry, %if.then14
  %retval.0 = phi double [ %call11, %if.then14 ], [ 0.000000e+00, %entry ], [ 0.000000e+00, %_ZN6vectorISt4pairIljELb1EjE3endEv.exit ], [ 0.000000e+00, %if.end ], [ 0.000000e+00, %for.inc ]
  ret double %retval.0
}